target datalayout = "e-m:e-p270:32:32-p271:32:32-p272:64:64-i64:64-i128:128-f80:128-n8:16:32:64-S128"
target triple = "x86_64-pc-linux-gnu"

%struct.jv = type { i8, i8, i16, i32, %union.anon }
%union.anon = type { ptr }

@.str.8 = private unnamed_addr constant [36 x i8] c"Paths must be specified as an array\00", align 1
@.str.9 = private unnamed_addr constant [40 x i8] c"Path must be specified as array, not %s\00", align 1

; Function Attrs: nounwind uwtable
define dso_local { i64, ptr } @jv_delpaths(i64 %0, ptr %1, i64 %2, ptr %3) #0 {
  %5 = alloca %struct.jv, align 8
  %6 = alloca %struct.jv, align 8
  %7 = alloca %struct.jv, align 8
  %8 = alloca %struct.jv, align 8
  %9 = alloca %struct.jv, align 8
  %10 = alloca %struct.jv, align 8
  %11 = alloca i32, align 4
  %12 = alloca %struct.jv, align 8
  %13 = alloca i32, align 4
  %14 = alloca i32, align 4
  %15 = alloca i32, align 4
  %16 = alloca %struct.jv, align 8
  %17 = alloca %struct.jv, align 8
  %18 = alloca i1, align 1
  %19 = alloca %struct.jv, align 8
  %20 = alloca %struct.jv, align 8
  %21 = alloca %struct.jv, align 8
  %22 = alloca %struct.jv, align 8
  %23 = alloca %struct.jv, align 8
  %24 = getelementptr inbounds nuw { i64, ptr }, ptr %6, i32 0, i32 0
  store i64 %0, ptr %24, align 8
  %25 = getelementptr inbounds nuw { i64, ptr }, ptr %6, i32 0, i32 1
  store ptr %1, ptr %25, align 8
  %26 = getelementptr inbounds nuw { i64, ptr }, ptr %7, i32 0, i32 0
  store i64 %2, ptr %26, align 8
  %27 = getelementptr inbounds nuw { i64, ptr }, ptr %7, i32 0, i32 1
  store ptr %3, ptr %27, align 8
  %28 = getelementptr inbounds nuw { i64, ptr }, ptr %7, i32 0, i32 0
  %29 = load i64, ptr %28, align 8
  %30 = getelementptr inbounds nuw { i64, ptr }, ptr %7, i32 0, i32 1
  %31 = load ptr, ptr %30, align 8
  %32 = call i32 @jv_get_kind(i64 %29, ptr %31)
  %33 = icmp ne i32 %32, 6
  br i1 %33, label %34, label %57

34:                                               ; preds = %4
  %35 = getelementptr inbounds nuw { i64, ptr }, ptr %6, i32 0, i32 0
  %36 = load i64, ptr %35, align 8
  %37 = getelementptr inbounds nuw { i64, ptr }, ptr %6, i32 0, i32 1
  %38 = load ptr, ptr %37, align 8
  call void @jv_free(i64 %36, ptr %38)
  %39 = getelementptr inbounds nuw { i64, ptr }, ptr %7, i32 0, i32 0
  %40 = load i64, ptr %39, align 8
  %41 = getelementptr inbounds nuw { i64, ptr }, ptr %7, i32 0, i32 1
  %42 = load ptr, ptr %41, align 8
  call void @jv_free(i64 %40, ptr %42)
  %43 = call { i64, ptr } @jv_string(ptr noundef @.str.8)
  %44 = getelementptr inbounds nuw { i64, ptr }, ptr %8, i32 0, i32 0
  %45 = extractvalue { i64, ptr } %43, 0
  store i64 %45, ptr %44, align 8
  %46 = getelementptr inbounds nuw { i64, ptr }, ptr %8, i32 0, i32 1
  %47 = extractvalue { i64, ptr } %43, 1
  store ptr %47, ptr %46, align 8
  %48 = getelementptr inbounds nuw { i64, ptr }, ptr %8, i32 0, i32 0
  %49 = load i64, ptr %48, align 8
  %50 = getelementptr inbounds nuw { i64, ptr }, ptr %8, i32 0, i32 1
  %51 = load ptr, ptr %50, align 8
  %52 = call { i64, ptr } @jv_invalid_with_msg(i64 %49, ptr %51)
  %53 = getelementptr inbounds nuw { i64, ptr }, ptr %5, i32 0, i32 0
  %54 = extractvalue { i64, ptr } %52, 0
  store i64 %54, ptr %53, align 8
  %55 = getelementptr inbounds nuw { i64, ptr }, ptr %5, i32 0, i32 1
  %56 = extractvalue { i64, ptr } %52, 1
  store ptr %56, ptr %55, align 8
  br label %256

57:                                               ; preds = %4
  call void @llvm.lifetime.start.p0(i64 16, ptr %9) #6
  %58 = getelementptr inbounds nuw { i64, ptr }, ptr %7, i32 0, i32 0
  %59 = load i64, ptr %58, align 8
  %60 = getelementptr inbounds nuw { i64, ptr }, ptr %7, i32 0, i32 1
  %61 = load ptr, ptr %60, align 8
  %62 = call { i64, ptr } @jv_copy(i64 %59, ptr %61)
  %63 = getelementptr inbounds nuw { i64, ptr }, ptr %10, i32 0, i32 0
  %64 = extractvalue { i64, ptr } %62, 0
  store i64 %64, ptr %63, align 8
  %65 = getelementptr inbounds nuw { i64, ptr }, ptr %10, i32 0, i32 1
  %66 = extractvalue { i64, ptr } %62, 1
  store ptr %66, ptr %65, align 8
  %67 = getelementptr inbounds nuw { i64, ptr }, ptr %7, i32 0, i32 0
  %68 = load i64, ptr %67, align 8
  %69 = getelementptr inbounds nuw { i64, ptr }, ptr %7, i32 0, i32 1
  %70 = load ptr, ptr %69, align 8
  %71 = getelementptr inbounds nuw { i64, ptr }, ptr %10, i32 0, i32 0
  %72 = load i64, ptr %71, align 8
  %73 = getelementptr inbounds nuw { i64, ptr }, ptr %10, i32 0, i32 1
  %74 = load ptr, ptr %73, align 8
  %75 = call { i64, ptr } @jv_sort(i64 %68, ptr %70, i64 %72, ptr %74)
  %76 = getelementptr inbounds nuw { i64, ptr }, ptr %9, i32 0, i32 0
  %77 = extractvalue { i64, ptr } %75, 0
  store i64 %77, ptr %76, align 8
  %78 = getelementptr inbounds nuw { i64, ptr }, ptr %9, i32 0, i32 1
  %79 = extractvalue { i64, ptr } %75, 1
  store ptr %79, ptr %78, align 8
  call void @llvm.memcpy.p0.p0.i64(ptr align 8 %7, ptr align 8 %9, i64 16, i1 false), !tbaa.struct !4
  call void @llvm.lifetime.end.p0(i64 16, ptr %9) #6
  call void @llvm.lifetime.start.p0(i64 4, ptr %11) #6
  %80 = getelementptr inbounds nuw { i64, ptr }, ptr %7, i32 0, i32 0
  %81 = load i64, ptr %80, align 8
  %82 = getelementptr inbounds nuw { i64, ptr }, ptr %7, i32 0, i32 1
  %83 = load ptr, ptr %82, align 8
  %84 = call { i64, ptr } @jv_copy(i64 %81, ptr %83)
  %85 = getelementptr inbounds nuw { i64, ptr }, ptr %12, i32 0, i32 0
  %86 = extractvalue { i64, ptr } %84, 0
  store i64 %86, ptr %85, align 8
  %87 = getelementptr inbounds nuw { i64, ptr }, ptr %12, i32 0, i32 1
  %88 = extractvalue { i64, ptr } %84, 1
  store ptr %88, ptr %87, align 8
  %89 = getelementptr inbounds nuw { i64, ptr }, ptr %12, i32 0, i32 0
  %90 = load i64, ptr %89, align 8
  %91 = getelementptr inbounds nuw { i64, ptr }, ptr %12, i32 0, i32 1
  %92 = load ptr, ptr %91, align 8
  %93 = call i32 @jv_array_length(i64 %90, ptr %92)
  store i32 %93, ptr %11, align 4, !tbaa !10
  call void @llvm.lifetime.start.p0(i64 4, ptr %13) #6
  store i32 0, ptr %13, align 4, !tbaa !10
  call void @llvm.lifetime.start.p0(i64 4, ptr %14) #6
  store i32 1, ptr %14, align 4, !tbaa !10
  br label %94

94:                                               ; preds = %179, %57
  %95 = load i32, ptr %14, align 4, !tbaa !10
  %96 = icmp ne i32 %95, 0
  br i1 %96, label %98, label %97

97:                                               ; preds = %94
  store i32 2, ptr %15, align 4
  br label %180

98:                                               ; preds = %94
  call void @llvm.lifetime.start.p0(i64 16, ptr %16) #6
  br label %99

99:                                               ; preds = %173, %98
  %100 = load i32, ptr %13, align 4, !tbaa !10
  %101 = load i32, ptr %11, align 4, !tbaa !10
  %102 = icmp slt i32 %100, %101
  store i1 false, ptr %18, align 1
  br i1 %102, label %103, label %123

103:                                              ; preds = %99
  call void @llvm.lifetime.start.p0(i64 16, ptr %17) #6
  store i1 true, ptr %18, align 1
  %104 = getelementptr inbounds nuw { i64, ptr }, ptr %7, i32 0, i32 0
  %105 = load i64, ptr %104, align 8
  %106 = getelementptr inbounds nuw { i64, ptr }, ptr %7, i32 0, i32 1
  %107 = load ptr, ptr %106, align 8
  %108 = call { i64, ptr } @jv_copy(i64 %105, ptr %107)
  %109 = getelementptr inbounds nuw { i64, ptr }, ptr %19, i32 0, i32 0
  %110 = extractvalue { i64, ptr } %108, 0
  store i64 %110, ptr %109, align 8
  %111 = getelementptr inbounds nuw { i64, ptr }, ptr %19, i32 0, i32 1
  %112 = extractvalue { i64, ptr } %108, 1
  store ptr %112, ptr %111, align 8
  %113 = load i32, ptr %13, align 4, !tbaa !10
  %114 = getelementptr inbounds nuw { i64, ptr }, ptr %19, i32 0, i32 0
  %115 = load i64, ptr %114, align 8
  %116 = getelementptr inbounds nuw { i64, ptr }, ptr %19, i32 0, i32 1
  %117 = load ptr, ptr %116, align 8
  %118 = call { i64, ptr } @jv_array_get(i64 %115, ptr %117, i32 noundef %113)
  %119 = getelementptr inbounds nuw { i64, ptr }, ptr %17, i32 0, i32 0
  %120 = extractvalue { i64, ptr } %118, 0
  store i64 %120, ptr %119, align 8
  %121 = getelementptr inbounds nuw { i64, ptr }, ptr %17, i32 0, i32 1
  %122 = extractvalue { i64, ptr } %118, 1
  store ptr %122, ptr %121, align 8
  call void @llvm.memcpy.p0.p0.i64(ptr align 8 %16, ptr align 8 %17, i64 16, i1 false), !tbaa.struct !4
  call void @llvm.lifetime.end.p0(i64 16, ptr %17) #6
  br label %124

123:                                              ; preds = %99
  br label %124

124:                                              ; preds = %123, %103
  %125 = phi i32 [ 1, %103 ], [ 0, %123 ]
  %126 = icmp ne i32 %125, 0
  br i1 %126, label %128, label %127

127:                                              ; preds = %124
  store i32 5, ptr %15, align 4
  br label %176

128:                                              ; preds = %124
  %129 = getelementptr inbounds nuw { i64, ptr }, ptr %16, i32 0, i32 0
  %130 = load i64, ptr %129, align 8
  %131 = getelementptr inbounds nuw { i64, ptr }, ptr %16, i32 0, i32 1
  %132 = load ptr, ptr %131, align 8
  %133 = call i32 @jv_get_kind(i64 %130, ptr %132)
  %134 = icmp ne i32 %133, 6
  br i1 %134, label %135, label %168

135:                                              ; preds = %128
  %136 = getelementptr inbounds nuw { i64, ptr }, ptr %6, i32 0, i32 0
  %137 = load i64, ptr %136, align 8
  %138 = getelementptr inbounds nuw { i64, ptr }, ptr %6, i32 0, i32 1
  %139 = load ptr, ptr %138, align 8
  call void @jv_free(i64 %137, ptr %139)
  %140 = getelementptr inbounds nuw { i64, ptr }, ptr %7, i32 0, i32 0
  %141 = load i64, ptr %140, align 8
  %142 = getelementptr inbounds nuw { i64, ptr }, ptr %7, i32 0, i32 1
  %143 = load ptr, ptr %142, align 8
  call void @jv_free(i64 %141, ptr %143)
  %144 = getelementptr inbounds nuw { i64, ptr }, ptr %16, i32 0, i32 0
  %145 = load i64, ptr %144, align 8
  %146 = getelementptr inbounds nuw { i64, ptr }, ptr %16, i32 0, i32 1
  %147 = load ptr, ptr %146, align 8
  %148 = call i32 @jv_get_kind(i64 %145, ptr %147)
  %149 = call ptr @jv_kind_name(i32 noundef %148)
  %150 = call { i64, ptr } (ptr, ...) @jv_string_fmt(ptr noundef @.str.9, ptr noundef %149)
  %151 = getelementptr inbounds nuw { i64, ptr }, ptr %20, i32 0, i32 0
  %152 = extractvalue { i64, ptr } %150, 0
  store i64 %152, ptr %151, align 8
  %153 = getelementptr inbounds nuw { i64, ptr }, ptr %20, i32 0, i32 1
  %154 = extractvalue { i64, ptr } %150, 1
  store ptr %154, ptr %153, align 8
  %155 = getelementptr inbounds nuw { i64, ptr }, ptr %20, i32 0, i32 0
  %156 = load i64, ptr %155, align 8
  %157 = getelementptr inbounds nuw { i64, ptr }, ptr %20, i32 0, i32 1
  %158 = load ptr, ptr %157, align 8
  %159 = call { i64, ptr } @jv_invalid_with_msg(i64 %156, ptr %158)
  %160 = getelementptr inbounds nuw { i64, ptr }, ptr %5, i32 0, i32 0
  %161 = extractvalue { i64, ptr } %159, 0
  store i64 %161, ptr %160, align 8
  %162 = getelementptr inbounds nuw { i64, ptr }, ptr %5, i32 0, i32 1
  %163 = extractvalue { i64, ptr } %159, 1
  store ptr %163, ptr %162, align 8
  %164 = getelementptr inbounds nuw { i64, ptr }, ptr %16, i32 0, i32 0
  %165 = load i64, ptr %164, align 8
  %166 = getelementptr inbounds nuw { i64, ptr }, ptr %16, i32 0, i32 1
  %167 = load ptr, ptr %166, align 8
  call void @jv_free(i64 %165, ptr %167)
  store i32 1, ptr %15, align 4
  br label %176

168:                                              ; preds = %128
  %169 = getelementptr inbounds nuw { i64, ptr }, ptr %16, i32 0, i32 0
  %170 = load i64, ptr %169, align 8
  %171 = getelementptr inbounds nuw { i64, ptr }, ptr %16, i32 0, i32 1
  %172 = load ptr, ptr %171, align 8
  call void @jv_free(i64 %170, ptr %172)
  br label %173

173:                                              ; preds = %168
  %174 = load i32, ptr %13, align 4, !tbaa !10
  %175 = add nsw i32 %174, 1
  store i32 %175, ptr %13, align 4, !tbaa !10
  br label %99, !llvm.loop !21

176:                                              ; preds = %135, %127
  call void @llvm.lifetime.end.p0(i64 16, ptr %16) #6
  %177 = load i32, ptr %15, align 4
  switch i32 %177, label %180 [
    i32 5, label %178
  ]

178:                                              ; preds = %176
  br label %179

179:                                              ; preds = %178
  store i32 0, ptr %14, align 4, !tbaa !10
  br label %94, !llvm.loop !22

180:                                              ; preds = %176, %97
  call void @llvm.lifetime.end.p0(i64 4, ptr %14) #6
  call void @llvm.lifetime.end.p0(i64 4, ptr %13) #6
  call void @llvm.lifetime.end.p0(i64 4, ptr %11) #6
  %181 = load i32, ptr %15, align 4
  switch i32 %181, label %258 [
    i32 2, label %182
    i32 1, label %256
  ]

182:                                              ; preds = %180
  %183 = getelementptr inbounds nuw { i64, ptr }, ptr %7, i32 0, i32 0
  %184 = load i64, ptr %183, align 8
  %185 = getelementptr inbounds nuw { i64, ptr }, ptr %7, i32 0, i32 1
  %186 = load ptr, ptr %185, align 8
  %187 = call { i64, ptr } @jv_copy(i64 %184, ptr %186)
  %188 = getelementptr inbounds nuw { i64, ptr }, ptr %21, i32 0, i32 0
  %189 = extractvalue { i64, ptr } %187, 0
  store i64 %189, ptr %188, align 8
  %190 = getelementptr inbounds nuw { i64, ptr }, ptr %21, i32 0, i32 1
  %191 = extractvalue { i64, ptr } %187, 1
  store ptr %191, ptr %190, align 8
  %192 = getelementptr inbounds nuw { i64, ptr }, ptr %21, i32 0, i32 0
  %193 = load i64, ptr %192, align 8
  %194 = getelementptr inbounds nuw { i64, ptr }, ptr %21, i32 0, i32 1
  %195 = load ptr, ptr %194, align 8
  %196 = call i32 @jv_array_length(i64 %193, ptr %195)
  %197 = icmp eq i32 %196, 0
  br i1 %197, label %198, label %203

198:                                              ; preds = %182
  %199 = getelementptr inbounds nuw { i64, ptr }, ptr %7, i32 0, i32 0
  %200 = load i64, ptr %199, align 8
  %201 = getelementptr inbounds nuw { i64, ptr }, ptr %7, i32 0, i32 1
  %202 = load ptr, ptr %201, align 8
  call void @jv_free(i64 %200, ptr %202)
  call void @llvm.memcpy.p0.p0.i64(ptr align 8 %5, ptr align 8 %6, i64 16, i1 false), !tbaa.struct !4
  br label %256

203:                                              ; preds = %182
  %204 = getelementptr inbounds nuw { i64, ptr }, ptr %7, i32 0, i32 0
  %205 = load i64, ptr %204, align 8
  %206 = getelementptr inbounds nuw { i64, ptr }, ptr %7, i32 0, i32 1
  %207 = load ptr, ptr %206, align 8
  %208 = call { i64, ptr } @jv_copy(i64 %205, ptr %207)
  %209 = getelementptr inbounds nuw { i64, ptr }, ptr %23, i32 0, i32 0
  %210 = extractvalue { i64, ptr } %208, 0
  store i64 %210, ptr %209, align 8
  %211 = getelementptr inbounds nuw { i64, ptr }, ptr %23, i32 0, i32 1
  %212 = extractvalue { i64, ptr } %208, 1
  store ptr %212, ptr %211, align 8
  %213 = getelementptr inbounds nuw { i64, ptr }, ptr %23, i32 0, i32 0
  %214 = load i64, ptr %213, align 8
  %215 = getelementptr inbounds nuw { i64, ptr }, ptr %23, i32 0, i32 1
  %216 = load ptr, ptr %215, align 8
  %217 = call { i64, ptr } @jv_array_get(i64 %214, ptr %216, i32 noundef 0)
  %218 = getelementptr inbounds nuw { i64, ptr }, ptr %22, i32 0, i32 0
  %219 = extractvalue { i64, ptr } %217, 0
  store i64 %219, ptr %218, align 8
  %220 = getelementptr inbounds nuw { i64, ptr }, ptr %22, i32 0, i32 1
  %221 = extractvalue { i64, ptr } %217, 1
  store ptr %221, ptr %220, align 8
  %222 = getelementptr inbounds nuw { i64, ptr }, ptr %22, i32 0, i32 0
  %223 = load i64, ptr %222, align 8
  %224 = getelementptr inbounds nuw { i64, ptr }, ptr %22, i32 0, i32 1
  %225 = load ptr, ptr %224, align 8
  %226 = call i32 @jv_array_length(i64 %223, ptr %225)
  %227 = icmp eq i32 %226, 0
  br i1 %227, label %228, label %242

228:                                              ; preds = %203
  %229 = getelementptr inbounds nuw { i64, ptr }, ptr %7, i32 0, i32 0
  %230 = load i64, ptr %229, align 8
  %231 = getelementptr inbounds nuw { i64, ptr }, ptr %7, i32 0, i32 1
  %232 = load ptr, ptr %231, align 8
  call void @jv_free(i64 %230, ptr %232)
  %233 = getelementptr inbounds nuw { i64, ptr }, ptr %6, i32 0, i32 0
  %234 = load i64, ptr %233, align 8
  %235 = getelementptr inbounds nuw { i64, ptr }, ptr %6, i32 0, i32 1
  %236 = load ptr, ptr %235, align 8
  call void @jv_free(i64 %234, ptr %236)
  %237 = call { i64, ptr } @jv_null()
  %238 = getelementptr inbounds nuw { i64, ptr }, ptr %5, i32 0, i32 0
  %239 = extractvalue { i64, ptr } %237, 0
  store i64 %239, ptr %238, align 8
  %240 = getelementptr inbounds nuw { i64, ptr }, ptr %5, i32 0, i32 1
  %241 = extractvalue { i64, ptr } %237, 1
  store ptr %241, ptr %240, align 8
  br label %256

242:                                              ; preds = %203
  %243 = getelementptr inbounds nuw { i64, ptr }, ptr %6, i32 0, i32 0
  %244 = load i64, ptr %243, align 8
  %245 = getelementptr inbounds nuw { i64, ptr }, ptr %6, i32 0, i32 1
  %246 = load ptr, ptr %245, align 8
  %247 = getelementptr inbounds nuw { i64, ptr }, ptr %7, i32 0, i32 0
  %248 = load i64, ptr %247, align 8
  %249 = getelementptr inbounds nuw { i64, ptr }, ptr %7, i32 0, i32 1
  %250 = load ptr, ptr %249, align 8
  %251 = call { i64, ptr } @delpaths_sorted(i64 %244, ptr %246, i64 %248, ptr %250, i32 noundef 0)
  %252 = getelementptr inbounds nuw { i64, ptr }, ptr %5, i32 0, i32 0
  %253 = extractvalue { i64, ptr } %251, 0
  store i64 %253, ptr %252, align 8
  %254 = getelementptr inbounds nuw { i64, ptr }, ptr %5, i32 0, i32 1
  %255 = extractvalue { i64, ptr } %251, 1
  store ptr %255, ptr %254, align 8
  br label %256

256:                                              ; preds = %242, %228, %198, %180, %34
  %257 = load { i64, ptr }, ptr %5, align 8
  ret { i64, ptr } %257

258:                                              ; preds = %180
  unreachable
}