; Function Attrs: nounwind uwtable
define dso_local { i64, ptr } @jv_delpaths(i64 %0, ptr %1, i64 %2, ptr %3) local_unnamed_addr #0 {
  %5 = tail call i32 @jv_get_kind(i64 %2, ptr %3) #6
  %.not = icmp eq i32 %5, 6
  br i1 %.not, label %.preheader, label %6

6:                                                ; preds = %4
  tail call void @jv_free(i64 %0, ptr %1) #6
  tail call void @jv_free(i64 %2, ptr %3) #6
  %7 = tail call { i64, ptr } @jv_string(ptr noundef nonnull @.str.8) #6
  %8 = extractvalue { i64, ptr } %7, 0
  %9 = extractvalue { i64, ptr } %7, 1
  %10 = tail call { i64, ptr } @jv_invalid_with_msg(i64 %8, ptr %9) #6
  br label %58

.preheader:                                       ; preds = %4
  %11 = tail call { i64, ptr } @jv_copy(i64 %2, ptr %3) #6
  %12 = extractvalue { i64, ptr } %11, 0
  %13 = extractvalue { i64, ptr } %11, 1
  %14 = tail call { i64, ptr } @jv_sort(i64 %2, ptr %3, i64 %12, ptr %13)
  %15 = extractvalue { i64, ptr } %14, 0
  %16 = extractvalue { i64, ptr } %14, 1
  %17 = tail call { i64, ptr } @jv_copy(i64 %15, ptr %16) #6
  %18 = extractvalue { i64, ptr } %17, 0
  %19 = extractvalue { i64, ptr } %17, 1
  %20 = tail call i32 @jv_array_length(i64 %18, ptr %19) #6
  %.not68.not90 = icmp sgt i32 %20, 0
  br i1 %.not68.not90, label %.lr.ph, label %.loopexit

.lr.ph:                                           ; preds = %.preheader, %28
  %.191 = phi i32 [ %29, %28 ], [ 0, %.preheader ]
  %21 = tail call { i64, ptr } @jv_copy(i64 %15, ptr %16) #6
  %22 = extractvalue { i64, ptr } %21, 0
  %23 = extractvalue { i64, ptr } %21, 1
  %24 = tail call { i64, ptr } @jv_array_get(i64 %22, ptr %23, i32 noundef %.191) #6
  %25 = extractvalue { i64, ptr } %24, 0
  %26 = extractvalue { i64, ptr } %24, 1
  %27 = tail call i32 @jv_get_kind(i64 %25, ptr %26) #6
  %.not69 = icmp eq i32 %27, 6
  br i1 %.not69, label %28, label %30

28:                                               ; preds = %.lr.ph
  tail call void @jv_free(i64 %25, ptr %26) #6
  %29 = add nuw nsw i32 %.191, 1
  %exitcond.not = icmp eq i32 %29, %20
  br i1 %exitcond.not, label %.loopexit, label %.lr.ph, !llvm.loop !12

30:                                               ; preds = %.lr.ph
  tail call void @jv_free(i64 %0, ptr %1) #6
  tail call void @jv_free(i64 %15, ptr %16) #6
  %31 = tail call i32 @jv_get_kind(i64 %25, ptr %26) #6
  %32 = tail call ptr @jv_kind_name(i32 noundef %31) #6
  %33 = tail call { i64, ptr } (ptr, ...) @jv_string_fmt(ptr noundef nonnull @.str.9, ptr noundef %32) #6
  %34 = extractvalue { i64, ptr } %33, 0
  %35 = extractvalue { i64, ptr } %33, 1
  %36 = tail call { i64, ptr } @jv_invalid_with_msg(i64 %34, ptr %35) #6
  tail call void @jv_free(i64 %25, ptr %26) #6
  br label %58

.loopexit:                                        ; preds = %28, %.preheader
  %37 = tail call { i64, ptr } @jv_copy(i64 %15, ptr %16) #6
  %38 = extractvalue { i64, ptr } %37, 0
  %39 = extractvalue { i64, ptr } %37, 1
  %40 = tail call i32 @jv_array_length(i64 %38, ptr %39) #6
  %41 = icmp eq i32 %40, 0
  br i1 %41, label %42, label %45

42:                                               ; preds = %.loopexit
  tail call void @jv_free(i64 %15, ptr %16) #6
  %43 = insertvalue { i64, ptr } poison, i64 %0, 0
  %44 = insertvalue { i64, ptr } %43, ptr %1, 1
  br label %58

45:                                               ; preds = %.loopexit
  %46 = tail call { i64, ptr } @jv_copy(i64 %15, ptr %16) #6
  %47 = extractvalue { i64, ptr } %46, 0
  %48 = extractvalue { i64, ptr } %46, 1
  %49 = tail call { i64, ptr } @jv_array_get(i64 %47, ptr %48, i32 noundef 0) #6
  %50 = extractvalue { i64, ptr } %49, 0
  %51 = extractvalue { i64, ptr } %49, 1
  %52 = tail call i32 @jv_array_length(i64 %50, ptr %51) #6
  %53 = icmp eq i32 %52, 0
  br i1 %53, label %54, label %56

54:                                               ; preds = %45
  tail call void @jv_free(i64 %15, ptr %16) #6
  tail call void @jv_free(i64 %0, ptr %1) #6
  %55 = tail call { i64, ptr } @jv_null() #6
  br label %58

56:                                               ; preds = %45
  %57 = tail call fastcc { i64, ptr } @delpaths_sorted(i64 %0, ptr %1, i64 %15, ptr %16, i32 noundef 0)
  br label %58

58:                                               ; preds = %30, %56, %54, %42, %6
  %.fca.1.insert.merged = phi { i64, ptr } [ %10, %6 ], [ %36, %30 ], [ %44, %42 ], [ %55, %54 ], [ %57, %56 ]
  ret { i64, ptr } %.fca.1.insert.merged
}